target datalayout = "e-m:e-p270:32:32-p271:32:32-p272:64:64-i64:64-i128:128-f80:128-n8:16:32:64-S128"
target triple = "x86_64-pc-linux-gnu"

%class.OopHandle = type { ptr }
%class.ClassUnloadingContext = type <{ ptr, i32, [4 x i8], ptr, i8, i8, [6 x i8] }>
%class.ClassLoaderData = type { %class.WeakHandle, %class.OopHandle, ptr, ptr, i8, i8, i8, i32, i32, %"class.ClassLoaderData::ChunkedHandleList", ptr, ptr, ptr, ptr, ptr, ptr, ptr, ptr, ptr, ptr, ptr, ptr, i64 }
%class.WeakHandle = type { ptr }
%"class.ClassLoaderData::ChunkedHandleList" = type { ptr }

; Function Attrs: mustprogress nounwind uwtable
define linkonce_odr hidden noundef ptr @_ZNK15ClassLoaderData14unloading_nextEv(ptr noundef nonnull align 8 dereferenceable(160) %0) #1 comdat align 2 {
  %2 = alloca ptr, align 8
  store ptr %0, ptr %2, align 8
  %3 = load ptr, ptr %2, align 8
  %4 = getelementptr inbounds %class.ClassLoaderData, ptr %3, i32 0, i32 18
  %5 = load ptr, ptr %4, align 8
  ret ptr %5
}

; Function Attrs: mustprogress nounwind uwtable
define hidden void @_ZN21ClassUnloadingContext20classes_unloading_doEPFvP5KlassE(ptr noundef nonnull align 8 dereferenceable(26) %0, ptr noundef %1) #1 align 2 {
  %3 = alloca ptr, align 8
  %4 = alloca ptr, align 8
  %5 = alloca ptr, align 8
  store ptr %0, ptr %3, align 8
  store ptr %1, ptr %4, align 8
  %6 = load ptr, ptr %3, align 8
  %7 = getelementptr inbounds %class.ClassUnloadingContext, ptr %6, i32 0, i32 0
  %8 = load volatile ptr, ptr %7, align 8
  store ptr %8, ptr %5, align 8
  br label %9

9:                                                ; preds = %15, %2
  %10 = load ptr, ptr %5, align 8
  %11 = icmp ne ptr %10, null
  br i1 %11, label %12, label %18

12:                                               ; preds = %9
  %13 = load ptr, ptr %5, align 8
  %14 = load ptr, ptr %4, align 8
  call void @_ZN15ClassLoaderData10classes_doEPFvP5KlassE(ptr noundef nonnull align 8 dereferenceable(160) %13, ptr noundef %14)
  br label %15

15:                                               ; preds = %12
  %16 = load ptr, ptr %5, align 8
  %17 = call noundef ptr @_ZNK15ClassLoaderData14unloading_nextEv(ptr noundef nonnull align 8 dereferenceable(160) %16)
  store ptr %17, ptr %5, align 8
  br label %9, !llvm.loop !10

18:                                               ; preds = %9
  ret void
}