; Function Attrs: mustprogress nounwind uwtable
define hidden void @_ZN21ClassUnloadingContext20classes_unloading_doEPFvP5KlassE(ptr noundef nonnull align 8 dereferenceable(26) %0, ptr noundef %1) local_unnamed_addr #0 align 2 {
  %3 = load volatile ptr, ptr %0, align 8
  %.not5 = icmp eq ptr %3, null
  br i1 %.not5, label %._crit_edge, label %.lr.ph

.lr.ph:                                           ; preds = %2, %.lr.ph
  %.06 = phi ptr [ %5, %.lr.ph ], [ %3, %2 ]
  tail call void @_ZN15ClassLoaderData10classes_doEPFvP5KlassE(ptr noundef nonnull align 8 dereferenceable(160) %.06, ptr noundef %1) #9
  %4 = getelementptr inbounds i8, ptr %.06, i64 120
  %5 = load ptr, ptr %4, align 8
  %.not = icmp eq ptr %5, null
  br i1 %.not, label %._crit_edge, label %.lr.ph, !llvm.loop !10

._crit_edge:                                      ; preds = %.lr.ph, %2
  ret void
}